(lp0
S'audio/a5.m4a'
p1
ag1
ag1
ag1
ag1
ag1
ag1
ag1
ag1
ag1
ag1
ag1
ag1
ag1
ag1
ag1
ag1
ag1
aS'audio/a10.mp3'
p2
ag2
ag2
ag2
ag2
ag2
ag2
ag2
ag2
ag2
ag2
ag2
ag2
ag2
ag2
ag2
ag2
ag2
ag2
ag2
ag2
ag2
ag2
ag2
ag2
ag2
ag2
ag2
ag2
ag2
ag2
ag2
ag2
ag2
ag2
ag2
ag2
ag2
ag2
ag2
ag2
ag2
ag2
ag2
ag2
ag2
ag2
ag2
ag2
ag2
ag2
ag2
ag2
ag2
ag2
ag2
ag2
ag2
ag2
ag2
ag2
ag2
ag2
ag2
ag2
ag2
ag2
ag2
ag2
ag2
ag2
ag2
ag2
ag2
ag2
ag2
ag2
ag2
ag2
ag2
ag2
ag2
ag2
ag2
ag2
ag2
ag2
ag2
ag2
ag2
ag2
ag2
ag2
ag2
ag2
ag2
ag2
ag2
ag2
ag2
ag2
ag2
ag2
ag2
ag2
ag2
ag2
ag2
ag2
ag2
ag2
ag2
ag2
ag2
ag2
ag2
ag2
ag2
ag2
ag2
ag2
ag2
ag2
ag2
ag2
ag2
ag2
ag2
ag2
ag2
ag2
ag2
ag2
ag2
ag2
ag2
ag2
ag2
ag2
ag2
ag2
ag2
ag2
ag2
ag2
ag2
ag2
ag2
ag2
ag2
ag2
ag2
ag2
ag2
ag2
ag2
ag2
ag2
ag2
ag2
ag2
ag2
ag2
ag2
ag2
ag2
ag2
ag2
ag2
ag2
ag2
ag2
ag2
ag2
ag2
ag2
ag2
ag2
ag2
ag2
ag2
ag2
ag2
ag2
ag2
ag2
ag2
ag2
ag2
ag2
ag2
ag2
ag2
ag2
ag2
ag2
ag2
ag2
ag2
ag2
ag2
ag2
ag2
ag2
ag2
ag2
ag2
ag2
ag2
ag2
ag2
ag2
ag2
ag2
ag2
ag2
ag2
ag2
ag2
ag2
ag2
ag2
ag2
ag2
ag2
ag2
ag2
ag2
ag2
ag2
ag2
ag2
ag2
ag2
ag2
ag2
ag2
ag2
ag2
ag2
ag2
ag2
ag2
ag2
ag2
ag2
ag2
ag2
ag2
ag2
ag2
ag2
ag2
ag2
ag2
ag2
ag2
ag2
ag2
ag2
ag2
ag2
ag2
ag2
ag2
ag2
ag2
ag2
ag2
ag2
ag2
ag2
ag2
ag2
ag2
ag2
ag2
ag2
ag2
ag2
ag2
ag2
ag2
ag2
ag2
ag2
ag2
ag2
ag2
ag2
ag2
ag2
ag2
ag2
ag2
ag2
ag2
ag2
ag2
ag2
ag2
ag2
ag2
ag2
ag2
ag2
ag2
ag2
ag2
ag2
ag2
ag2
ag2
ag2
ag2
ag2
ag2
ag2
ag2
ag2
ag2
ag2
ag2
ag2
ag2
ag2
ag2
ag2
ag2
ag2
ag2
ag2
ag2
ag2
ag2
ag2
ag2
ag2
ag2
ag2
ag2
ag2
ag2
ag2
ag2
ag2
ag2
ag2
ag2
ag2
ag2
ag2
ag2
ag2
ag2
ag2
ag2
ag2
ag2
ag2
ag2
ag2
ag2
ag2
ag2
ag2
ag2
ag2
ag2
ag2
ag2
ag2
ag2
ag2
ag2
ag2
ag2
ag2
ag2
ag2
ag2
ag2
ag2
ag2
ag2
ag2
ag2
ag2
ag2
ag2
ag2
ag2
ag2
ag2
ag2
ag2
ag2
ag2
ag2
ag2
ag2
ag2
ag2
ag2
ag2
ag2
ag2
ag2
ag2
ag2
ag2
ag2
ag2
ag2
ag2
ag2
ag2
ag2
ag2
ag2
ag2
ag2
ag2
ag2
ag2
ag2
ag2
ag2
ag2
ag2
ag2
ag2
ag2
ag2
ag2
ag2
ag2
ag2
ag2
ag2
ag2
ag2
ag2
ag2
ag2
ag2
ag2
ag2
ag2
ag2
ag2
ag2
ag2
ag2
ag2
ag2
ag2
ag2
ag2
ag2
ag2
ag2
ag2
ag2
ag2
ag2
ag2
ag2
ag2
ag2
ag2
ag2
ag2
ag2
ag2
ag2
ag2
ag2
ag2
ag2
ag2
ag2
ag2
ag2
ag2
ag2
ag2
ag2
ag2
ag2
ag2
ag2
ag2
ag2
ag2
ag2
ag2
ag2
ag2
ag2
ag2
ag2
ag2
ag2
ag2
ag2
ag2
ag2
ag2
ag2
ag2
ag2
ag2
ag2
ag2
ag2
ag2
ag2
ag2
ag2
ag2
ag2
ag2
ag2
ag2
ag2
ag2
ag2
ag2
ag2
ag2
ag2
ag2
ag2
ag2
ag2
ag2
ag2
ag2
ag2
ag2
ag2
ag2
ag2
ag2
ag2
ag2
ag2
ag2
ag2
ag2
ag2
ag2
ag2
ag2
ag2
ag2
ag2
ag2
ag2
ag2
ag2
ag2
ag2
ag2
ag2
ag2
ag2
ag2
ag2
ag2
ag2
ag2
ag2
ag2
ag2
ag2
ag2
ag2
ag2
ag2
ag2
ag2
ag2
ag2
ag2
ag2
ag2
ag2
ag2
ag2
ag2
ag2
ag2
ag2
ag2
ag2
ag2
ag2
ag2
ag2
ag2
ag2
ag2
ag2
ag2
ag2
ag2
ag2
ag2
ag2
ag2
ag2
ag2
ag2
ag2
ag2
ag2
ag2
ag2
ag2
ag2
ag2
ag2
ag2
ag2
ag2
ag2
ag2
ag2
ag2
ag2
ag2
ag2
ag2
ag2
ag2
ag2
ag2
ag2
ag2
ag2
ag2
ag2
ag2
ag2
ag2
ag2
ag2
ag2
ag2
ag2
ag2
ag2
ag2
ag2
ag2
ag2
ag2
ag2
ag2
ag2
ag2
ag2
ag2
ag2
ag2
ag2
ag2
ag2
ag2
ag2
ag2
ag2
ag2
ag2
ag2
ag2
ag2
ag2
ag2
ag2
ag2
ag2
ag2
ag2
ag2
ag2
ag2
ag2
ag2
ag2
ag2
ag2
ag2
ag2
ag2
ag2
ag2
ag2
ag2
ag2
ag2
ag2
ag2
ag2
ag2
ag2
ag2
ag2
ag2
ag2
ag2
ag2
ag2
ag2
ag2
ag2
ag2
ag2
ag2
ag2
ag2
ag2
ag2
ag2
ag2
ag2
ag2
ag2
ag2
ag2
ag2
ag2
ag2
ag2
ag2
ag2
ag2
ag2
ag2
ag2
ag2
ag2
ag2
ag2
ag2
ag2
ag2
ag2
ag2
ag2
ag2
ag2
ag2
ag2
ag2
ag2
ag2
ag2
ag2
ag2
ag2
ag2
ag2
ag2
ag2
ag2
ag2
ag2
ag2
ag2
ag2
ag2
ag2
ag2
ag2
ag2
ag2
ag2
ag2
ag2
ag2
ag2
ag2
ag2
ag2
ag2
ag2
ag2
ag2
ag2
ag2
ag2
ag2
ag2
ag2
ag2
ag2
ag2
ag2
ag2
ag2
ag2
ag2
ag2
ag2
ag2
ag2
ag2
ag2
ag2
ag2
ag2
ag2
ag2
ag2
ag2
ag2
ag2
ag2
ag2
ag2
ag2
ag2
ag2
ag2
ag2
ag2
ag2
ag2
ag2
ag2
ag2
ag2
ag2
ag2
ag2
ag2
ag2
ag2
ag2
ag2
ag2
ag2
ag2
ag2
ag2
ag2
ag2
ag2
ag2
ag2
ag2
ag2
ag2
ag2
ag2
ag2
ag2
ag2
ag2
ag2
ag2
ag2
ag2
ag2
ag2
ag2
ag2
ag2
ag2
ag2
ag2
ag2
ag2
ag2
ag2
ag2
ag2
ag2
ag2
ag2
ag2
ag2
ag2
ag2
ag2
ag2
ag2
ag2
ag2
ag2
ag2
ag2
ag2
ag2
ag2
ag2
ag2
ag2
ag2
ag2
ag2
ag2
ag2
ag2
ag2
ag2
ag2
ag2
ag2
ag2
ag2
ag2
ag2
ag2
ag2
ag2
ag2
ag2
ag2
ag2
ag2
ag2
ag2
ag2
ag2
ag2
ag2
ag2
ag2
ag2
ag2
ag2
ag2
ag2
ag2
ag2
ag2
ag2
ag2
ag2
ag2
ag2
ag2
ag2
ag2
ag2
ag2
ag2
ag2
ag2
ag2
ag2
ag2
ag2
ag2
ag2
ag2
ag2
ag2
ag2
ag2
ag2
ag2
ag2
ag2
ag2
ag2
ag2
ag2
ag2
ag2
ag2
ag2
ag2
ag2
ag2
ag2
ag2
ag2
ag2
ag2
ag2
ag2
ag2
ag2
ag2
ag2
ag2
ag2
ag2
ag2
ag2
ag2
ag2
ag2
ag2
ag2
ag2
ag2
ag2
ag2
ag2
ag2
ag2
ag2
ag2
ag2
ag2
ag2
ag2
ag2
ag2
ag2
ag2
ag2
ag2
ag2
ag2
ag2
ag2
ag2
ag2
ag2
ag2
ag2
ag2
ag2
ag2
ag2
ag2
ag2
ag2
ag2
ag2
ag2
ag2
ag2
ag2
ag2
ag2
ag2
ag2
ag2
ag2
ag2
ag2
ag2
ag2
ag2
ag2
ag2
ag2
ag2
ag2
ag2
ag2
ag2
ag2
ag2
ag2
ag2
ag2
ag2
ag2
ag2
ag2
ag2
ag2
ag2
ag2
ag2
ag2
ag2
ag2
ag2
ag2
ag2
ag2
ag2
ag2
ag2
ag2
ag2
ag2
ag2
ag2
ag2
ag2
ag2
ag2
ag2
ag2
ag2
ag2
ag2
ag2
ag2
ag2
ag2
ag2
ag2
ag2
ag2
ag2
ag2
ag2
ag2
ag2
ag2
ag2
ag2
ag2
ag2
ag2
ag2
ag2
ag2
ag2
ag2
ag2
ag2
ag2
ag2
ag2
ag2
ag2
ag2
ag2
ag2
ag2
ag2
ag2
ag2
ag2
ag2
ag2
ag2
ag2
ag2
ag2
ag2
ag2
ag2
ag2
ag2
ag2
ag2
ag2
ag2
ag2
ag2
ag2
ag2
ag2
ag2
ag2
ag2
ag2
ag2
ag2
ag2
ag2
ag2
ag2
ag2
ag2
ag2
ag2
ag2
ag2
ag2
ag2
ag2
ag2
ag2
ag2
ag2
ag2
ag2
ag2
ag2
ag2
ag2
ag2
ag2
ag2
ag2
ag2
ag2
ag2
ag2
ag2
ag2
ag2
ag2
ag2
ag2
ag2
ag2
ag2
ag2
ag2
ag2
ag2
ag2
ag2
ag2
ag2
ag2
ag2
ag2
ag2
ag2
ag2
ag2
ag2
ag2
ag2
ag2
ag2
ag2
ag2
ag2
ag2
ag2
ag2
ag2
ag2
ag2
ag2
ag2
ag2
ag2
ag2
ag2
ag2
ag2
ag2
ag2
ag2
ag2
ag2
ag2
ag2
ag2
ag2
ag2
ag2
ag2
ag2
ag2
ag2
ag2
ag2
ag2
ag2
ag2
ag2
ag2
ag2
ag2
ag2
ag2
ag2
ag2
ag2
ag2
ag2
ag2
ag2
ag2
ag2
ag2
ag2
ag2
ag2
ag2
ag2
ag2
ag2
ag2
ag2
ag2
ag2
ag2
ag2
ag2
ag2
ag2
ag2
ag2
ag2
ag2
ag2
ag2
ag2
ag2
ag2
ag2
ag2
ag2
ag2
ag2
ag2
ag2
ag2
ag2
ag2
ag2
ag2
ag2
ag2
ag2
ag2
ag2
ag2
ag2
ag2
ag2
ag2
ag2
ag2
ag2
ag2
ag2
ag2
ag2
ag2
ag2
ag2
ag2
ag2
ag2
ag2
ag2
ag2
ag2
ag2
ag2
ag2
ag2
ag2
ag2
ag2
ag2
ag2
ag2
ag2
ag2
ag2
ag2
ag2
ag2
ag2
ag2
ag2
ag2
ag2
ag2
ag2
ag2
ag2
ag2
ag2
ag2
ag2
ag2
ag2
ag2
ag2
ag2
ag2
ag2
ag2
ag2
ag2
ag2
ag2
ag2
ag2
ag2
ag2
ag2
ag2
ag2
ag2
ag2
ag2
ag2
ag2
ag2
ag2
ag2
ag2
ag2
ag2
ag2
ag2
ag2
ag2
ag2
ag2
ag2
ag2
ag2
ag2
ag2
ag2
ag2
ag2
ag2
ag2
ag2
ag2
ag2
ag2
ag2
ag2
ag2
ag2
ag2
ag2
ag2
ag2
ag2
ag2
ag2
ag2
ag2
ag2
ag2
ag2
ag2
ag2
ag2
ag2
ag2
ag2
ag2
ag2
ag2
ag2
ag2
ag2
ag2
ag2
ag2
ag2
ag2
ag2
ag2
ag2
ag2
ag2
ag2
ag2
ag2
ag2
ag2
ag2
ag2
ag2
ag2
ag2
ag2
ag2
ag2
ag2
ag2
ag2
ag2
ag2
ag2
ag2
ag2
ag2
ag2
ag2
ag2
ag2
ag2
ag2
ag2
ag2
ag2
ag2
ag2
ag2
ag2
ag2
ag2
ag2
ag2
ag2
ag2
ag2
ag2
ag2
ag2
ag2
ag2
ag2
ag2
ag2
ag2
ag2
ag2
ag2
ag2
ag2
ag2
ag2
ag2
ag2
ag2
ag2
ag2
ag2
ag2
ag2
ag2
ag2
ag2
ag2
ag2
ag2
ag2
ag2
ag2
ag2
ag2
ag2
ag2
ag2
ag2
ag2
ag2
ag2
ag2
ag2
ag2
ag2
ag2
ag2
ag2
ag2
ag2
ag2
ag2
ag2
ag2
ag2
ag2
ag2
ag2
ag2
ag2
ag2
ag2
ag2
ag2
ag2
ag2
ag2
ag2
ag2
ag2
ag2
ag2
ag2
ag2
ag2
ag2
ag2
ag2
ag2
ag2
ag2
ag2
ag2
ag2
ag2
ag2
ag2
ag2
ag2
ag2
ag2
ag2
ag2
ag2
ag2
ag2
ag2
ag2
ag2
ag2
ag2
ag2
ag2
ag2
ag2
ag2
ag2
ag2
ag2
ag2
ag2
ag2
ag2
ag2
ag2
ag2
ag2
ag2
ag2
ag2
ag2
ag2
ag2
ag2
ag2
ag2
ag2
ag2
ag2
ag2
ag2
ag2
ag2
ag2
ag2
ag2
ag2
ag2
ag2
ag2
ag2
ag2
ag2
ag2
ag2
ag2
ag2
ag2
ag2
ag2
ag2
ag2
ag2
ag2
ag2
ag2
ag2
ag2
ag2
ag2
ag2
ag2
ag2
ag2
ag2
ag2
ag2
ag2
ag2
ag2
ag2
ag2
ag2
ag2
ag2
ag2
ag2
ag2
ag2
ag2
ag2
ag2
ag2
ag2
ag2
ag2
ag2
ag2
ag2
ag2
ag2
ag2
ag2
ag2
ag2
ag2
ag2
ag2
ag2
ag2
ag2
ag2
ag2
ag2
ag2
ag2
ag2
ag2
ag2
ag2
ag2
ag2
ag2
ag2
ag2
ag2
ag2
ag2
ag2
ag2
ag2
ag2
ag2
ag2
ag2
ag2
ag2
ag2
ag2
ag2
ag2
ag2
ag2
ag2
ag2
ag2
ag2
ag2
ag2
ag2
ag2
ag2
ag2
ag2
ag2
ag2
ag2
ag2
ag2
ag2
ag2
ag2
ag2
ag2
ag2
ag2
ag2
ag2
ag2
ag2
ag2
ag2
ag2
ag2
ag2
ag2
ag2
ag2
ag2
ag2
ag2
ag2
ag2
ag2
ag2
ag2
ag2
ag2
ag2
ag2
ag2
ag2
ag2
ag2
ag2
ag2
ag2
ag2
ag2
ag2
ag2
ag2
ag2
ag2
ag2
ag2
ag2
ag2
ag2
ag2
ag2
ag2
ag2
ag2
ag2
ag2
ag2
ag2
ag2
ag2
ag2
ag2
ag2
ag2
ag2
ag2
ag2
ag2
ag2
ag2
ag2
ag2
ag2
ag2
ag2
ag2
ag2
ag2
ag2
ag2
ag2
ag2
ag2
ag2
ag2
ag2
ag2
ag2
ag2
ag2
ag2
ag2
ag2
ag2
ag2
ag2
ag2
ag2
ag2
ag2
ag2
ag2
ag2
ag2
ag2
ag2
ag2
ag2
ag2
ag2
ag2
ag2
ag2
ag2
ag2
ag2
ag2
ag2
ag2
ag2
ag2
ag2
ag2
ag2
ag2
ag2
ag2
ag2
ag2
ag2
ag2
ag2
ag2
ag2
ag2
ag2
ag2
ag2
ag2
ag2
ag2
ag2
ag2
ag2
ag2
ag2
ag2
ag2
ag2
ag2
ag2
ag2
ag2
ag2
ag2
ag2
ag2
ag2
ag2
ag2
ag2
ag2
ag2
ag2
ag2
ag2
ag2
ag2
ag2
ag2
ag2
ag2
ag2
ag2
ag2
ag2
ag2
ag2
ag2
ag2
ag2
ag2
ag2
ag2
ag2
ag2
ag2
ag2
ag2
ag2
ag2
ag2
ag2
ag2
ag2
ag2
ag2
ag2
ag2
ag2
ag2
ag2
ag2
ag2
ag2
ag2
ag2
ag2
ag2
ag2
ag2
ag2
ag2
ag2
ag2
ag2
ag2
ag2
ag2
ag2
ag2
ag2
ag2
ag2
ag2
ag2
ag2
ag2
ag2
ag2
ag2
ag2
ag2
ag2
ag2
ag2
ag2
ag2
ag2
ag2
ag2
ag2
ag2
ag2
ag2
ag2
ag2
ag2
ag2
ag2
ag2
ag2
ag2
ag2
ag2
ag2
ag2
ag2
ag2
ag2
ag2
ag2
ag2
ag2
ag2
ag2
ag2
ag2
ag2
ag2
ag2
ag2
ag2
ag2
ag2
ag2
ag2
ag2
ag2
ag2
ag2
ag2
ag2
ag2
ag2
ag2
ag2
ag2
ag2
ag2
ag2
ag2
ag2
ag2
ag2
ag2
ag2
ag2
ag2
ag2
ag2
ag2
ag2
ag2
ag2
ag2
ag2
ag2
ag2
ag2
ag2
ag2
ag2
ag2
ag2
ag2
ag2
ag2
ag2
ag2
ag2
ag2
ag2
ag2
ag2
ag2
ag2
ag2
ag2
ag2
ag2
ag2
ag2
ag2
ag2
ag2
ag2
ag2
ag2
ag2
ag2
ag2
ag2
ag2
ag2
ag2
ag2
ag2
ag2
ag2
ag2
ag2
ag2
ag2
ag2
ag2
ag2
ag2
ag2
ag2
ag2
ag2
ag2
ag2
ag2
ag2
ag2
ag2
ag2
ag2
ag2
ag2
ag2
ag2
ag2
ag2
ag2
ag2
ag2
ag2
ag2
ag2
ag2
ag2
ag2
ag2
ag2
ag2
ag2
ag2
ag2
ag2
ag2
ag2
ag2
ag2
ag2
ag2
ag2
ag2
ag2
ag2
ag2
ag2
ag2
ag2
ag2
ag2
ag2
ag2
ag2
ag2
ag2
ag2
ag2
ag2
ag2
ag2
ag2
ag2
ag2
ag2
ag2
ag2
ag2
ag2
ag2
ag2
ag2
ag2
ag2
ag2
ag2
ag2
ag2
ag2
ag2
ag2
ag2
ag2
ag2
ag2
ag2
ag2
ag2
ag2
ag2
ag2
ag2
ag2
ag2
ag2
ag2
ag2
ag2
ag2
ag2
ag2
ag2
ag2
ag2
ag2
ag2
ag2
ag2
ag2
ag2
ag2
ag2
ag2
ag2
ag2
ag2
ag2
ag2
ag2
ag2
ag2
ag2
ag2
ag2
ag2
ag2
ag2
ag2
ag2
ag2
ag2
ag2
ag2
ag2
ag2
ag2
ag2
ag2
ag2
ag2
ag2
ag2
ag2
ag2
ag2
ag2
ag2
ag2
ag2
ag2
ag2
ag2
ag2
ag2
ag2
ag2
ag2
ag2
ag2
ag2
ag2
ag2
ag2
ag2
ag2
ag2
ag2
ag2
ag2
ag2
ag2
ag2
ag2
ag2
ag2
ag2
ag2
ag2
ag2
ag2
ag2
ag2
ag2
ag2
ag2
ag2
ag2
ag2
ag2
ag2
ag2
ag2
ag2
ag2
ag2
ag2
ag2
ag2
ag2
ag2
ag2
ag2
ag2
ag2
ag2
ag2
ag2
ag2
ag2
ag2
ag2
ag2
ag2
ag2
ag2
ag2
ag2
ag2
ag2
ag2
ag2
ag2
ag2
ag2
ag2
ag2
ag2
ag2
ag2
ag2
ag2
ag2
ag2
ag2
ag2
ag2
ag2
ag2
ag2
ag2
ag2
ag2
ag2
ag2
ag2
ag2
ag2
ag2
ag2
ag2
ag2
ag2
ag2
ag2
ag2
ag2
ag2
ag2
ag2
ag2
ag2
ag2
ag2
ag2
ag2
ag2
ag2
ag2
ag2
ag2
ag2
ag2
ag2
ag2
ag2
ag2
ag2
ag2
ag2
ag2
ag2
ag2
ag2
ag2
ag2
ag2
ag2
ag2
ag2
ag2
ag2
ag2
ag2
ag2
ag2
ag2
ag2
ag2
ag2
ag2
ag2
ag2
ag2
ag2
ag2
ag2
ag2
ag2
ag2
ag2
ag2
ag2
ag2
ag2
ag2
ag2
ag2
ag2
ag2
ag2
ag2
ag2
ag2
ag2
ag2
ag2
ag2
ag2
ag2
ag2
ag2
ag2
ag2
ag2
ag2
ag2
ag2
ag2
ag2
ag2
ag2
ag2
ag2
ag2
ag2
ag2
ag2
ag2
ag2
ag2
ag2
ag2
ag2
ag2
ag2
ag2
ag2
ag2
ag2
ag2
ag2
ag2
ag2
ag2
ag2
ag2
ag2
ag2
ag2
ag2
ag2
ag2
ag2
ag2
ag2
ag2
ag2
ag2
ag2
ag2
ag2
ag2
aS'audio/a6.m4a'
p3
ag3
ag3
ag3
ag3
ag3
ag3
ag3
ag3
ag3
ag3
ag3
ag3
ag3
ag3
ag3
ag3
ag3
ag3
ag3
ag3
ag3
ag3
ag3
ag3
ag3
ag3
ag3
ag3
ag3
ag3
ag3
aS'audio/a2.m4a'
p4
ag4
ag4
ag4
ag4
ag4
ag4
ag4
ag4
ag4
ag4
ag4
ag4
ag4
ag4
ag4
ag4
ag4
ag4
ag4
ag4
ag4
ag4
ag4
ag4
ag4
ag4
ag4
ag4
ag4
ag4
ag4
ag4
ag4
ag4
ag4
ag4
ag4
ag4
ag4
ag4
ag4
ag4
ag4
ag4
ag4
aS'audio/a13.mp3'
p5
ag5
ag5
ag5
ag5
ag5
ag5
ag5
ag5
ag5
ag5
ag5
ag5
ag5
ag5
ag5
ag5
ag5
ag5
ag5
ag5
ag5
ag5
ag5
ag5
ag5
ag5
ag5
ag5
ag5
ag5
ag5
ag5
ag5
ag5
ag5
ag5
ag5
ag5
ag5
ag5
ag5
ag5
ag5
ag5
ag5
ag5
ag5
ag5
ag5
ag5
ag5
ag5
ag5
ag5
ag5
ag5
ag5
ag5
ag5
ag5
ag5
ag5
ag5
ag5
ag5
ag5
ag5
ag5
ag5
ag5
ag5
ag5
ag5
ag5
ag5
ag5
ag5
ag5
ag5
ag5
ag5
ag5
ag5
ag5
ag5
ag5
ag5
ag5
ag5
ag5
ag5
ag5
ag5
ag5
ag5
ag5
ag5
ag5
ag5
ag5
ag5
ag5
ag5
ag5
ag5
ag5
ag5
ag5
ag5
ag5
ag5
ag5
ag5
ag5
ag5
ag5
ag5
ag5
ag5
ag5
ag5
ag5
ag5
ag5
ag5
ag5
ag5
ag5
ag5
ag5
ag5
ag5
ag5
ag5
ag5
ag5
ag5
ag5
ag5
ag5
ag5
ag5
ag5
ag5
ag5
ag5
ag5
ag5
ag5
ag5
ag5
ag5
ag5
ag5
ag5
ag5
ag5
ag5
ag5
ag5
ag5
ag5
ag5
ag5
ag5
ag5
ag5
ag5
ag5
ag5
ag5
ag5
ag5
ag5
ag5
ag5
ag5
ag5
ag5
ag5
ag5
ag5
ag5
ag5
ag5
ag5
ag5
ag5
ag5
ag5
ag5
ag5
ag5
ag5
ag5
ag5
ag5
ag5
ag5
ag5
ag5
ag5
ag5
ag5
ag5
ag5
ag5
ag5
ag5
ag5
ag5
ag5
ag5
ag5
ag5
ag5
ag5
ag5
ag5
ag5
ag5
ag5
ag5
ag5
ag5
ag5
ag5
ag5
ag5
ag5
ag5
ag5
ag5
ag5
ag5
ag5
ag5
ag5
ag5
ag5
ag5
ag5
ag5
ag5
ag5
ag5
ag5
ag5
ag5
ag5
ag5
ag5
ag5
ag5
ag5
ag5
ag5
ag5
ag5
ag5
ag5
ag5
ag5
ag5
ag5
ag5
ag5
ag5
ag5
ag5
ag5
ag5
ag5
ag5
ag5
aS'audio/a3.m4a'
p6
ag6
ag6
ag6
ag6
ag6
ag6
ag6
ag6
ag6
ag6
ag6
ag6
ag6
ag6
ag6
ag6
ag6
ag6
ag6
ag6
ag6
ag6
ag6
ag6
ag6
ag6
ag6
ag6
ag6
ag6
ag6
ag6
ag6
ag6
ag6
aS'audio/a9.mp3'
p7
ag7
ag7
ag7
ag7
ag7
ag7
ag7
ag7
ag7
ag7
ag7
ag7
ag7
ag7
ag7
ag7
ag7
ag7
ag7
ag7
ag7
ag7
ag7
ag7
ag7
ag7
ag7
ag7
ag7
ag7
ag7
ag7
ag7
ag7
ag7
ag7
ag7
ag7
ag7
ag7
ag7
ag7
ag7
ag7
ag7
ag7
ag7
ag7
ag7
ag7
ag7
ag7
ag7
ag7
ag7
ag7
ag7
ag7
ag7
ag7
ag7
ag7
ag7
ag7
ag7
ag7
ag7
ag7
ag7
ag7
ag7
ag7
ag7
ag7
ag7
ag7
ag7
ag7
ag7
ag7
ag7
ag7
ag7
ag7
ag7
ag7
ag7
ag7
ag7
ag7
ag7
ag7
ag7
ag7
ag7
ag7
ag7
ag7
ag7
ag7
ag7
ag7
ag7
ag7
ag7
ag7
ag7
ag7
ag7
ag7
ag7
ag7
ag7
ag7
ag7
ag7
ag7
ag7
ag7
ag7
ag7
ag7
ag7
ag7
ag7
ag7
ag7
ag7
ag7
ag7
ag7
ag7
ag7
ag7
ag7
ag7
ag7
ag7
ag7
ag7
ag7
ag7
ag7
ag7
ag7
ag7
ag7
ag7
ag7
ag7
ag7
ag7
ag7
ag7
ag7
ag7
ag7
ag7
ag7
ag7
ag7
ag7
ag7
ag7
ag7
ag7
ag7
ag7
ag7
ag7
ag7
ag7
ag7
ag7
ag7
ag7
ag7
ag7
ag7
ag7
ag7
ag7
ag7
ag7
ag7
ag7
ag7
ag7
ag7
ag7
ag7
ag7
ag7
ag7
ag7
ag7
ag7
ag7
ag7
ag7
ag7
ag7
ag7
ag7
ag7
ag7
ag7
ag7
ag7
ag7
ag7
ag7
ag7
ag7
ag7
ag7
ag7
ag7
ag7
ag7
ag7
ag7
ag7
ag7
ag7
ag7
ag7
ag7
ag7
ag7
ag7
ag7
ag7
ag7
ag7
ag7
ag7
ag7
ag7
ag7
ag7
ag7
ag7
ag7
ag7
ag7
ag7
ag7
ag7
ag7
ag7
ag7
ag7
ag7
ag7
ag7
ag7
ag7
ag7
ag7
ag7
ag7
ag7
ag7
ag7
ag7
ag7
ag7
ag7
ag7
ag7
ag7
ag7
ag7
ag7
ag7
ag7
ag7
ag7
ag7
ag7
ag7
ag7
ag7
ag7
ag7
ag7
ag7
ag7
ag7
ag7
ag7
ag7
ag7
ag7
ag7
ag7
ag7
ag7
ag7
ag7
ag7
ag7
ag7
ag7
ag7
ag7
ag7
ag7
ag7
ag7
ag7
ag7
ag7
ag7
ag7
ag7
ag7
ag7
ag7
ag7
ag7
ag7
ag7
ag7
ag7
ag7
ag7
ag7
ag7
ag7
ag7
ag7
ag7
ag7
ag7
ag7
ag7
ag7
ag7
ag7
ag7
ag7
ag7
ag7
ag7
ag7
ag7
ag7
ag7
ag7
ag7
ag7
ag7
ag7
ag7
ag7
ag7
ag7
ag7
ag7
ag7
ag7
ag7
ag7
ag7
ag7
ag7
ag7
ag7
ag7
ag7
ag7
ag7
ag7
ag7
ag7
ag7
ag7
ag7
ag7
ag7
ag7
ag7
ag7
ag7
ag7
ag7
ag7
ag7
ag7
ag7
ag7
ag7
ag7
ag7
ag7
ag7
ag7
ag7
ag7
ag7
ag7
ag7
ag7
ag7
ag7
ag7
ag7
ag7
ag7
ag7
ag7
ag7
ag7
ag7
ag7
ag7
ag7
ag7
ag7
ag7
ag7
ag7
ag7
ag7
ag7
ag7
ag7
ag7
ag7
ag7
ag7
ag7
ag7
ag7
ag7
ag7
ag7
ag7
ag7
ag7
ag7
ag7
ag7
ag7
ag7
ag7
ag7
ag7
ag7
ag7
ag7
ag7
ag7
ag7
ag7
ag7
ag7
ag7
ag7
ag7
ag7
ag7
ag7
ag7
ag7
ag7
ag7
ag7
ag7
ag7
ag7
ag7
ag7
ag7
ag7
ag7
ag7
ag7
ag7
ag7
ag7
ag7
ag7
ag7
ag7
ag7
ag7
ag7
ag7
ag7
ag7
ag7
ag7
ag7
ag7
ag7
ag7
ag7
ag7
ag7
ag7
ag7
ag7
ag7
ag7
ag7
ag7
ag7
ag7
ag7
ag7
ag7
ag7
ag7
ag7
ag7
ag7
ag7
ag7
ag7
ag7
ag7
ag7
ag7
ag7
ag7
ag7
ag7
ag7
ag7
ag7
ag7
ag7
ag7
ag7
ag7
ag7
ag7
ag7
ag7
ag7
ag7
ag7
ag7
ag7
ag7
ag7
ag7
ag7
ag7
ag7
ag7
ag7
ag7
ag7
ag7
ag7
ag7
ag7
ag7
ag7
ag7
ag7
ag7
ag7
ag7
ag7
ag7
ag7
ag7
ag7
ag7
ag7
ag7
ag7
ag7
ag7
ag7
ag7
ag7
ag7
ag7
ag7
ag7
ag7
ag7
ag7
ag7
ag7
ag7
ag7
ag7
ag7
ag7
ag7
ag7
ag7
ag7
ag7
ag7
ag7
ag7
ag7
ag7
ag7
ag7
ag7
ag7
ag7
ag7
ag7
ag7
ag7
ag7
ag7
ag7
ag7
ag7
ag7
ag7
ag7
ag7
ag7
ag7
ag7
ag7
ag7
ag7
ag7
ag7
ag7
ag7
ag7
ag7
ag7
ag7
ag7
ag7
ag7
ag7
ag7
ag7
ag7
ag7
ag7
ag7
ag7
ag7
ag7
ag7
ag7
ag7
ag7
ag7
ag7
ag7
ag7
ag7
ag7
ag7
ag7
ag7
ag7
ag7
ag7
ag7
ag7
ag7
ag7
ag7
ag7
ag7
ag7
ag7
ag7
ag7
ag7
ag7
ag7
ag7
ag7
ag7
ag7
ag7
ag7
ag7
ag7
ag7
ag7
ag7
ag7
ag7
ag7
ag7
ag7
ag7
ag7
ag7
ag7
ag7
ag7
ag7
ag7
ag7
ag7
ag7
ag7
ag7
ag7
ag7
ag7
ag7
ag7
ag7
ag7
ag7
ag7
ag7
ag7
ag7
ag7
ag7
ag7
ag7
ag7
ag7
ag7
ag7
ag7
ag7
ag7
ag7
ag7
ag7
ag7
ag7
ag7
ag7
ag7
ag7
ag7
ag7
ag7
ag7
ag7
ag7
ag7
ag7
ag7
ag7
ag7
ag7
ag7
ag7
ag7
ag7
ag7
ag7
ag7
ag7
ag7
ag7
ag7
ag7
ag7
ag7
ag7
ag7
ag7
ag7
ag7
ag7
ag7
ag7
ag7
ag7
ag7
ag7
ag7
ag7
ag7
ag7
ag7
ag7
ag7
ag7
ag7
ag7
ag7
ag7
ag7
ag7
ag7
ag7
ag7
ag7
ag7
ag7
ag7
ag7
ag7
ag7
ag7
ag7
ag7
ag7
ag7
ag7
ag7
ag7
ag7
ag7
ag7
ag7
ag7
ag7
ag7
ag7
ag7
ag7
ag7
ag7
ag7
ag7
ag7
ag7
ag7
ag7
ag7
ag7
ag7
ag7
ag7
ag7
ag7
ag7
ag7
ag7
ag7
ag7
ag7
ag7
ag7
ag7
ag7
ag7
ag7
ag7
ag7
ag7
ag7
ag7
ag7
ag7
ag7
ag7
ag7
ag7
ag7
ag7
ag7
ag7
ag7
ag7
ag7
ag7
ag7
ag7
ag7
ag7
ag7
ag7
ag7
ag7
ag7
ag7
ag7
ag7
ag7
ag7
ag7
ag7
ag7
ag7
ag7
ag7
ag7
ag7
ag7
ag7
ag7
ag7
ag7
ag7
ag7
ag7
ag7
ag7
ag7
ag7
ag7
ag7
ag7
ag7
ag7
ag7
ag7
ag7
ag7
ag7
ag7
ag7
ag7
ag7
ag7
ag7
ag7
ag7
ag7
ag7
ag7
ag7
ag7
ag7
ag7
ag7
ag7
ag7
ag7
ag7
ag7
ag7
ag7
ag7
ag7
ag7
ag7
ag7
ag7
ag7
ag7
ag7
ag7
ag7
ag7
ag7
ag7
ag7
ag7
ag7
ag7
ag7
ag7
ag7
ag7
ag7
ag7
ag7
ag7
ag7
ag7
ag7
ag7
ag7
ag7
ag7
ag7
ag7
ag7
ag7
ag7
ag7
ag7
ag7
ag7
ag7
ag7
ag7
ag7
ag7
ag7
ag7
ag7
ag7
ag7
ag7
ag7
ag7
ag7
ag7
ag7
ag7
ag7
ag7
ag7
ag7
ag7
ag7
ag7
ag7
ag7
ag7
ag7
ag7
ag7
ag7
ag7
ag7
ag7
ag7
ag7
ag7
ag7
ag7
ag7
ag7
ag7
ag7
ag7
ag7
ag7
ag7
ag7
ag7
ag7
ag7
ag7
ag7
ag7
ag7
ag7
ag7
ag7
ag7
ag7
ag7
ag7
ag7
ag7
ag7
ag7
ag7
ag7
ag7
ag7
ag7
ag7
ag7
ag7
ag7
ag7
ag7
ag7
ag7
ag7
ag7
ag7
ag7
ag7
ag7
ag7
ag7
ag7
ag7
ag7
ag7
ag7
ag7
ag7
ag7
ag7
ag7
ag7
ag7
ag7
ag7
ag7
ag7
ag7
ag7
ag7
ag7
ag7
ag7
ag7
ag7
ag7
ag7
ag7
ag7
ag7
ag7
ag7
ag7
ag7
ag7
ag7
ag7
ag7
ag7
ag7
ag7
ag7
ag7
ag7
ag7
ag7
ag7
ag7
ag7
ag7
ag7
ag7
ag7
ag7
ag7
ag7
ag7
ag7
ag7
ag7
ag7
ag7
ag7
ag7
ag7
ag7
ag7
ag7
ag7
ag7
ag7
ag7
ag7
ag7
ag7
ag7
ag7
ag7
ag7
ag7
ag7
ag7
ag7
ag7
ag7
ag7
ag7
ag7
ag7
ag7
ag7
ag7
ag7
ag7
ag7
ag7
ag7
ag7
ag7
ag7
ag7
ag7
ag7
ag7
ag7
ag7
ag7
ag7
ag7
ag7
ag7
ag7
ag7
ag7
ag7
ag7
ag7
ag7
ag7
ag7
ag7
ag7
ag7
ag7
ag7
ag7
ag7
ag7
ag7
ag7
ag7
ag7
ag7
ag7
ag7
ag7
ag7
ag7
ag7
ag7
ag7
ag7
ag7
ag7
ag7
ag7
ag7
ag7
ag7
ag7
ag7
ag7
ag7
ag7
ag7
ag7
ag7
ag7
ag7
ag7
ag7
ag7
ag7
ag7
ag7
ag7
ag7
ag7
ag7
ag7
ag7
ag7
ag7
ag7
ag7
ag7
ag7
ag7
ag7
ag7
ag7
ag7
ag7
ag7
ag7
ag7
ag7
ag7
ag7
ag7
ag7
ag7
ag7
ag7
ag7
ag7
ag7
ag7
ag7
ag7
ag7
ag7
ag7
ag7
ag7
ag7
ag7
ag7
ag7
ag7
ag7
ag7
ag7
ag7
ag7
ag7
ag7
ag7
ag7
ag7
ag7
ag7
ag7
ag7
ag7
ag7
ag7
ag7
ag7
ag7
ag7
ag7
ag7
ag7
ag7
ag7
ag7
ag7
ag7
ag7
ag7
ag7
ag7
ag7
ag7
ag7
ag7
ag7
ag7
ag7
ag7
ag7
ag7
ag7
ag7
ag7
ag7
ag7
ag7
ag7
ag7
ag7
ag7
ag7
ag7
ag7
ag7
ag7
ag7
ag7
ag7
ag7
ag7
ag7
ag7
ag7
ag7
ag7
ag7
ag7
ag7
ag7
ag7
ag7
ag7
ag7
ag7
ag7
ag7
ag7
ag7
ag7
ag7
ag7
ag7
ag7
ag7
ag7
ag7
ag7
ag7
ag7
ag7
ag7
ag7
ag7
ag7
ag7
ag7
ag7
ag7
ag7
ag7
ag7
ag7
ag7
ag7
ag7
ag7
ag7
ag7
ag7
ag7
ag7
ag7
ag7
ag7
ag7
ag7
ag7
ag7
ag7
ag7
ag7
ag7
ag7
ag7
ag7
ag7
ag7
ag7
ag7
ag7
ag7
ag7
ag7
ag7
ag7
ag7
ag7
ag7
ag7
ag7
ag7
ag7
ag7
ag7
ag7
ag7
ag7
ag7
ag7
ag7
ag7
ag7
ag7
ag7
ag7
ag7
ag7
ag7
ag7
ag7
ag7
ag7
ag7
ag7
ag7
ag7
ag7
ag7
ag7
ag7
ag7
ag7
ag7
ag7
ag7
ag7
ag7
ag7
ag7
ag7
ag7
ag7
ag7
ag7
ag7
ag7
ag7
ag7
ag7
ag7
ag7
ag7
ag7
ag7
ag7
ag7
ag7
ag7
ag7
ag7
ag7
ag7
ag7
ag7
ag7
ag7
ag7
ag7
ag7
ag7
ag7
ag7
ag7
ag7
ag7
ag7
ag7
ag7
ag7
ag7
ag7
ag7
ag7
ag7
ag7
ag7
ag7
ag7
ag7
ag7
ag7
ag7
ag7
ag7
ag7
ag7
ag7
ag7
ag7
ag7
ag7
ag7
ag7
ag7
ag7
ag7
ag7
ag7
ag7
ag7
ag7
ag7
ag7
ag7
ag7
ag7
ag7
ag7
ag7
ag7
ag7
ag7
ag7
ag7
ag7
ag7
ag7
ag7
ag7
ag7
ag7
ag7
ag7
ag7
ag7
ag7
ag7
ag7
ag7
ag7
ag7
ag7
ag7
ag7
ag7
ag7
ag7
ag7
ag7
ag7
ag7
ag7
ag7
ag7
ag7
ag7
ag7
ag7
ag7
ag7
ag7
ag7
ag7
ag7
ag7
ag7
ag7
ag7
ag7
ag7
ag7
ag7
ag7
ag7
ag7
ag7
ag7
ag7
ag7
ag7
ag7
ag7
ag7
ag7
ag7
ag7
ag7
ag7
ag7
ag7
ag7
ag7
ag7
ag7
ag7
ag7
ag7
ag7
ag7
ag7
ag7
ag7
ag7
ag7
ag7
ag7
ag7
ag7
ag7
ag7
ag7
ag7
ag7
ag7
ag7
ag7
ag7
ag7
ag7
ag7
ag7
ag7
ag7
ag7
ag7
ag7
ag7
ag7
ag7
ag7
ag7
ag7
ag7
ag7
ag7
ag7
ag7
ag7
ag7
ag7
ag7
ag7
ag7
ag7
ag7
ag7
ag7
ag7
ag7
ag7
ag7
ag7
ag7
ag7
ag7
ag7
ag7
ag7
ag7
ag7
ag7
ag7
ag7
ag7
ag7
ag7
ag7
ag7
ag7
ag7
ag7
ag7
ag7
ag7
ag7
ag7
ag7
ag7
ag7
ag7
ag7
ag7
ag7
ag7
ag7
ag7
ag7
ag7
ag7
ag7
ag7
ag7
ag7
ag7
ag7
ag7
ag7
ag7
ag7
ag7
ag7
ag7
ag7
ag7
ag7
ag7
ag7
ag7
ag7
ag7
ag7
ag7
ag7
ag7
ag7
ag7
ag7
ag7
ag7
ag7
ag7
ag7
ag7
ag7
ag7
ag7
ag7
ag7
ag7
ag7
ag7
ag7
ag7
ag7
ag7
ag7
ag7
ag7
ag7
ag7
ag7
ag7
ag7
ag7
ag7
ag7
ag7
ag7
ag7
ag7
ag7
ag7
ag7
ag7
ag7
ag7
ag7
ag7
ag7
ag7
ag7
ag7
ag7
ag7
ag7
ag7
ag7
ag7
ag7
ag7
ag7
ag7
ag7
ag7
ag7
ag7
ag7
ag7
ag7
ag7
ag7
ag7
ag7
ag7
ag7
ag7
ag7
ag7
ag7
ag7
ag7
ag7
ag7
ag7
ag7
ag7
ag7
ag7
ag7
ag7
ag7
ag7
ag7
ag7
ag7
ag7
ag7
ag7
ag7
ag7
ag7
ag7
ag7
ag7
ag7
ag7
ag7
ag7
ag7
ag7
ag7
ag7
ag7
ag7
ag7
ag7
ag7
ag7
ag7
ag7
ag7
ag7
ag7
ag7
ag7
ag7
ag7
ag7
ag7
ag7
ag7
ag7
ag7
ag7
ag7
ag7
ag7
ag7
ag7
ag7
ag7
ag7
ag7
ag7
ag7
ag7
ag7
ag7
ag7
ag7
ag7
ag7
ag7
ag7
ag7
ag7
ag7
ag7
ag7
ag7
ag7
ag7
ag7
ag7
ag7
ag7
ag7
ag7
ag7
ag7
ag7
ag7
ag7
ag7
ag7
ag7
ag7
ag7
ag7
ag7
ag7
ag7
ag7
ag7
ag7
ag7
ag7
ag7
ag7
ag7
ag7
ag7
ag7
ag7
ag7
ag7
ag7
ag7
ag7
ag7
ag7
ag7
ag7
ag7
ag7
ag7
ag7
ag7
ag7
ag7
ag7
ag7
ag7
ag7
ag7
ag7
ag7
ag7
ag7
ag7
ag7
ag7
ag7
ag7
ag7
ag7
ag7
ag7
ag7
ag7
ag7
ag7
ag7
ag7
ag7
ag7
ag7
ag7
ag7
ag7
ag7
ag7
ag7
ag7
ag7
ag7
ag7
ag7
ag7
ag7
ag7
ag7
ag7
ag7
ag7
ag7
ag7
ag7
ag7
ag7
ag7
ag7
ag7
ag7
ag7
ag7
ag7
ag7
ag7
ag7
ag7
ag7
ag7
ag7
ag7
ag7
ag7
ag7
ag7
ag7
ag7
ag7
ag7
ag7
ag7
ag7
ag7
ag7
ag7
ag7
ag7
ag7
ag7
ag7
ag7
ag7
ag7
ag7
ag7
ag7
ag7
ag7
ag7
ag7
ag7
ag7
ag7
ag7
ag7
ag7
ag7
ag7
ag7
ag7
ag7
ag7
ag7
ag7
ag7
ag7
ag7
ag7
ag7
ag7
ag7
ag7
ag7
ag7
ag7
ag7
ag7
ag7
ag7
ag7
ag7
ag7
ag7
ag7
ag7
ag7
ag7
ag7
ag7
ag7
ag7
ag7
ag7
ag7
ag7
ag7
ag7
ag7
ag7
ag7
ag7
ag7
ag7
ag7
ag7
ag7
ag7
ag7
ag7
ag7
ag7
ag7
ag7
ag7
ag7
ag7
ag7
ag7
ag7
ag7
ag7
ag7
ag7
ag7
ag7
ag7
ag7
ag7
ag7
ag7
ag7
ag7
ag7
ag7
ag7
ag7
ag7
ag7
ag7
ag7
ag7
ag7
ag7
ag7
ag7
ag7
ag7
ag7
ag7
ag7
ag7
ag7
ag7
ag7
ag7
ag7
ag7
ag7
ag7
ag7
ag7
ag7
ag7
ag7
ag7
ag7
ag7
ag7
ag7
ag7
ag7
ag7
ag7
ag7
ag7
ag7
ag7
ag7
ag7
ag7
ag7
ag7
ag7
ag7
ag7
ag7
ag7
ag7
ag7
ag7
ag7
ag7
ag7
ag7
ag7
ag7
ag7
ag7
ag7
ag7
ag7
ag7
ag7
ag7
ag7
ag7
ag7
ag7
ag7
ag7
ag7
ag7
ag7
ag7
ag7
ag7
ag7
ag7
ag7
ag7
ag7
ag7
ag7
ag7
ag7
ag7
ag7
ag7
ag7
ag7
ag7
ag7
ag7
ag7
ag7
ag7
ag7
ag7
ag7
ag7
ag7
ag7
ag7
ag7
ag7
ag7
ag7
ag7
ag7
ag7
ag7
ag7
ag7
ag7
ag7
ag7
ag7
ag7
ag7
ag7
ag7
ag7
ag7
ag7
ag7
ag7
ag7
ag7
ag7
ag7
ag7
ag7
ag7
ag7
ag7
ag7
ag7
ag7
ag7
ag7
ag7
ag7
ag7
ag7
ag7
ag7
ag7
ag7
ag7
ag7
ag7
ag7
ag7
ag7
ag7
ag7
ag7
ag7
ag7
ag7
ag7
ag7
ag7
ag7
ag7
ag7
ag7
ag7
ag7
ag7
ag7
ag7
ag7
ag7
ag7
ag7
ag7
ag7
ag7
ag7
ag7
ag7
ag7
ag7
ag7
ag7
ag7
ag7
ag7
ag7
ag7
ag7
ag7
ag7
ag7
ag7
ag7
ag7
ag7
ag7
ag7
ag7
ag7
ag7
ag7
ag7
ag7
ag7
ag7
ag7
ag7
ag7
ag7
ag7
ag7
ag7
ag7
ag7
ag7
ag7
ag7
ag7
ag7
ag7
ag7
ag7
ag7
ag7
ag7
ag7
ag7
ag7
ag7
ag7
ag7
ag7
ag7
ag7
ag7
ag7
ag7
ag7
ag7
ag7
ag7
ag7
ag7
ag7
ag7
ag7
ag7
ag7
ag7
ag7
ag7
ag7
ag7
ag7
ag7
ag7
ag7
ag7
ag7
ag7
ag7
ag7
ag7
ag7
ag7
ag7
ag7
ag7
ag7
ag7
ag7
ag7
ag7
ag7
ag7
ag7
ag7
ag7
ag7
ag7
ag7
ag7
ag7
ag7
ag7
ag7
ag7
ag7
ag7
ag7
ag7
ag7
ag7
ag7
ag7
ag7
ag7
ag7
ag7
ag7
ag7
ag7
ag7
ag7
ag7
ag7
ag7
ag7
ag7
ag7
ag7
ag7
ag7
ag7
ag7
ag7
ag7
ag7
ag7
ag7
ag7
ag7
ag7
ag7
ag7
ag7
ag7
ag7
ag7
ag7
ag7
ag7
ag7
ag7
ag7
ag7
ag7
ag7
ag7
ag7
ag7
ag7
ag7
ag7
ag7
ag7
ag7
ag7
ag7
ag7
ag7
ag7
ag7
ag7
ag7
ag7
ag7
ag7
ag7
ag7
ag7
ag7
ag7
ag7
ag7
ag7
ag7
ag7
ag7
ag7
ag7
ag7
ag7
ag7
ag7
ag7
ag7
ag7
ag7
ag7
ag7
ag7
ag7
ag7
ag7
ag7
ag7
ag7
ag7
ag7
ag7
ag7
ag7
ag7
ag7
ag7
ag7
ag7
ag7
ag7
ag7
ag7
ag7
ag7
ag7
ag7
ag7
ag7
ag7
ag7
ag7
ag7
ag7
ag7
ag7
ag7
ag7
ag7
ag7
ag7
ag7
ag7
ag7
ag7
ag7
ag7
ag7
ag7
ag7
ag7
ag7
ag7
ag7
ag7
ag7
ag7
ag7
ag7
ag7
ag7
ag7
ag7
ag7
ag7
ag7
ag7
ag7
ag7
ag7
ag7
ag7
ag7
ag7
ag7
ag7
ag7
ag7
ag7
ag7
ag7
ag7
ag7
ag7
ag7
ag7
ag7
ag7
ag7
ag7
ag7
ag7
ag7
ag7
ag7
ag7
ag7
ag7
ag7
ag7
ag7
ag7
ag7
ag7
ag7
ag7
ag7
ag7
ag7
ag7
ag7
ag7
ag7
ag7
ag7
ag7
ag7
ag7
ag7
ag7
ag7
ag7
ag7
ag7
ag7
ag7
ag7
ag7
ag7
ag7
ag7
ag7
ag7
ag7
ag7
ag7
ag7
ag7
ag7
ag7
ag7
ag7
ag7
ag7
ag7
ag7
ag7
ag7
ag7
ag7
ag7
ag7
ag7
ag7
ag7
ag7
ag7
ag7
ag7
ag7
ag7
ag7
ag7
ag7
ag7
ag7
ag7
ag7
ag7
ag7
ag7
ag7
ag7
ag7
ag7
ag7
ag7
ag7
ag7
ag7
ag7
ag7
ag7
ag7
ag7
ag7
ag7
ag7
ag7
ag7
ag7
ag7
ag7
ag7
ag7
ag7
ag7
ag7
ag7
ag7
ag7
ag7
ag7
ag7
ag7
ag7
ag7
ag7
ag7
ag7
ag7
ag7
ag7
ag7
ag7
ag7
ag7
ag7
ag7
ag7
ag7
ag7
ag7
ag7
ag7
ag7
ag7
ag7
ag7
ag7
ag7
ag7
ag7
ag7
ag7
ag7
ag7
ag7
ag7
ag7
ag7
ag7
ag7
ag7
ag7
ag7
ag7
ag7
ag7
ag7
ag7
ag7
ag7
ag7
ag7
ag7
ag7
ag7
ag7
ag7
ag7
ag7
ag7
ag7
ag7
ag7
ag7
ag7
ag7
ag7
ag7
ag7
ag7
ag7
ag7
ag7
ag7
ag7
ag7
ag7
ag7
ag7
ag7
ag7
ag7
ag7
ag7
ag7
ag7
ag7
ag7
ag7
ag7
ag7
ag7
ag7
ag7
ag7
ag7
ag7
ag7
ag7
ag7
ag7
ag7
ag7
ag7
ag7
ag7
ag7
ag7
ag7
ag7
ag7
ag7
ag7
ag7
ag7
ag7
ag7
ag7
ag7
ag7
ag7
ag7
ag7
ag7
ag7
ag7
ag7
ag7
ag7
ag7
ag7
ag7
ag7
ag7
ag7
ag7
ag7
ag7
ag7
ag7
ag7
ag7
ag7
ag7
ag7
ag7
ag7
ag7
ag7
ag7
ag7
ag7
ag7
ag7
ag7
ag7
ag7
ag7
ag7
ag7
ag7
ag7
ag7
ag7
ag7
ag7
ag7
ag7
ag7
ag7
ag7
ag7
ag7
ag7
ag7
ag7
ag7
ag7
ag7
ag7
ag7
ag7
ag7
ag7
ag7
ag7
ag7
ag7
ag7
ag7
ag7
ag7
ag7
ag7
ag7
ag7
ag7
ag7
ag7
ag7
ag7
ag7
ag7
ag7
ag7
ag7
ag7
ag7
ag7
ag7
ag7
ag7
ag7
ag7
ag7
ag7
aS'audio/a12.mp3'
p8
ag8
ag8
ag8
ag8
ag8
ag8
ag8
ag8
ag8
ag8
ag8
ag8
ag8
ag8
ag8
ag8
ag8
ag8
ag8
ag8
ag8
ag8
ag8
ag8
ag8
ag8
ag8
ag8
ag8
ag8
ag8
ag8
ag8
ag8
ag8
ag8
ag8
ag8
ag8
ag8
ag8
ag8
ag8
ag8
ag8
ag8
ag8
ag8
ag8
ag8
ag8
ag8
ag8
ag8
ag8
ag8
ag8
ag8
ag8
ag8
ag8
ag8
ag8
ag8
ag8
ag8
ag8
ag8
ag8
ag8
ag8
ag8
ag8
ag8
ag8
ag8
ag8
ag8
ag8
ag8
ag8
ag8
ag8
ag8
ag8
ag8
ag8
ag8
ag8
ag8
ag8
ag8
ag8
ag8
ag8
ag8
ag8
ag8
ag8
ag8
ag8
ag8
ag8
ag8
ag8
ag8
ag8
ag8
ag8
ag8
ag8
ag8
ag8
ag8
ag8
ag8
ag8
ag8
ag8
ag8
ag8
ag8
ag8
ag8
ag8
ag8
ag8
ag8
ag8
ag8
ag8
ag8
ag8
ag8
ag8
ag8
ag8
ag8
ag8
ag8
ag8
ag8
ag8
ag8
ag8
ag8
ag8
ag8
ag8
ag8
ag8
ag8
ag8
ag8
ag8
ag8
ag8
ag8
ag8
ag8
ag8
ag8
ag8
ag8
ag8
ag8
ag8
ag8
ag8
ag8
ag8
ag8
ag8
ag8
ag8
ag8
ag8
ag8
ag8
ag8
ag8
ag8
ag8
ag8
ag8
ag8
ag8
ag8
ag8
ag8
ag8
ag8
ag8
ag8
ag8
ag8
ag8
ag8
ag8
ag8
ag8
ag8
ag8
ag8
ag8
ag8
ag8
ag8
ag8
ag8
ag8
ag8
ag8
ag8
ag8
ag8
ag8
ag8
ag8
ag8
ag8
ag8
ag8
ag8
ag8
ag8
ag8
ag8
ag8
ag8
ag8
ag8
ag8
ag8
ag8
ag8
ag8
ag8
ag8
ag8
ag8
ag8
ag8
ag8
ag8
ag8
ag8
ag8
ag8
ag8
ag8
ag8
ag8
ag8
ag8
ag8
ag8
ag8
ag8
ag8
ag8
ag8
ag8
ag8
ag8
ag8
ag8
ag8
ag8
ag8
ag8
ag8
ag8
ag8
ag8
ag8
ag8
ag8
ag8
ag8
ag8
ag8
ag8
ag8
ag8
ag8
ag8
ag8
ag8
ag8
ag8
ag8
ag8
ag8
ag8
ag8
ag8
ag8
ag8
ag8
ag8
ag8
ag8
ag8
ag8
ag8
ag8
ag8
ag8
ag8
ag8
ag8
ag8
ag8
ag8
ag8
ag8
ag8
ag8
ag8
ag8
ag8
ag8
ag8
ag8
ag8
ag8
ag8
ag8
ag8
ag8
ag8
ag8
ag8
ag8
ag8
ag8
ag8
ag8
ag8
ag8
ag8
ag8
ag8
ag8
ag8
ag8
ag8
ag8
ag8
ag8
ag8
ag8
ag8
ag8
ag8
ag8
ag8
ag8
ag8
ag8
ag8
ag8
ag8
ag8
ag8
ag8
ag8
ag8
ag8
ag8
ag8
ag8
ag8
ag8
ag8
ag8
ag8
ag8
ag8
ag8
ag8
ag8
ag8
ag8
ag8
ag8
ag8
ag8
ag8
ag8
ag8
ag8
ag8
ag8
ag8
ag8
ag8
ag8
ag8
ag8
ag8
ag8
ag8
ag8
ag8
ag8
ag8
ag8
ag8
ag8
ag8
ag8
ag8
ag8
ag8
ag8
ag8
ag8
ag8
ag8
ag8
ag8
ag8
ag8
ag8
ag8
ag8
ag8
ag8
ag8
ag8
ag8
ag8
ag8
ag8
ag8
ag8
ag8
ag8
ag8
ag8
ag8
ag8
ag8
ag8
ag8
ag8
ag8
ag8
ag8
ag8
ag8
ag8
ag8
ag8
ag8
ag8
ag8
ag8
ag8
ag8
ag8
ag8
ag8
ag8
ag8
ag8
ag8
ag8
ag8
ag8
ag8
ag8
ag8
ag8
ag8
ag8
ag8
ag8
ag8
ag8
ag8
ag8
ag8
ag8
ag8
ag8
ag8
ag8
ag8
ag8
ag8
ag8
ag8
ag8
ag8
ag8
ag8
ag8
ag8
ag8
ag8
ag8
ag8
ag8
ag8
ag8
ag8
ag8
ag8
ag8
ag8
ag8
ag8
ag8
ag8
ag8
ag8
ag8
ag8
ag8
ag8
ag8
ag8
ag8
ag8
ag8
ag8
ag8
ag8
ag8
ag8
ag8
ag8
ag8
ag8
ag8
ag8
ag8
ag8
ag8
ag8
ag8
ag8
ag8
ag8
ag8
ag8
ag8
ag8
ag8
ag8
ag8
ag8
ag8
ag8
ag8
ag8
ag8
ag8
ag8
ag8
ag8
ag8
ag8
ag8
ag8
ag8
ag8
ag8
ag8
ag8
ag8
ag8
ag8
ag8
ag8
ag8
ag8
ag8
ag8
ag8
ag8
ag8
ag8
ag8
ag8
ag8
ag8
ag8
ag8
ag8
ag8
ag8
ag8
ag8
ag8
ag8
ag8
ag8
ag8
ag8
ag8
ag8
ag8
ag8
ag8
ag8
ag8
ag8
ag8
ag8
ag8
ag8
ag8
ag8
ag8
ag8
ag8
ag8
ag8
ag8
ag8
ag8
ag8
ag8
ag8
ag8
ag8
ag8
ag8
ag8
ag8
ag8
ag8
ag8
ag8
ag8
ag8
ag8
ag8
ag8
ag8
ag8
ag8
ag8
ag8
ag8
ag8
ag8
ag8
ag8
ag8
ag8
ag8
ag8
ag8
ag8
ag8
ag8
ag8
ag8
ag8
ag8
ag8
ag8
ag8
ag8
ag8
ag8
ag8
ag8
ag8
ag8
ag8
ag8
ag8
ag8
ag8
ag8
ag8
ag8
ag8
ag8
ag8
ag8
ag8
ag8
ag8
ag8
ag8
ag8
ag8
ag8
ag8
ag8
ag8
ag8
ag8
ag8
ag8
ag8
ag8
ag8
ag8
ag8
ag8
ag8
ag8
ag8
ag8
ag8
ag8
ag8
ag8
ag8
ag8
ag8
ag8
ag8
ag8
ag8
ag8
ag8
ag8
ag8
ag8
ag8
ag8
ag8
ag8
ag8
ag8
ag8
ag8
ag8
ag8
ag8
ag8
ag8
ag8
ag8
ag8
ag8
ag8
ag8
ag8
ag8
ag8
ag8
ag8
ag8
ag8
ag8
ag8
ag8
ag8
ag8
ag8
ag8
ag8
ag8
ag8
ag8
ag8
ag8
ag8
ag8
ag8
ag8
ag8
ag8
ag8
ag8
ag8
ag8
ag8
ag8
ag8
ag8
ag8
ag8
ag8
ag8
ag8
ag8
ag8
ag8
ag8
ag8
ag8
ag8
ag8
ag8
ag8
ag8
ag8
ag8
ag8
ag8
ag8
ag8
ag8
ag8
ag8
ag8
ag8
ag8
ag8
ag8
ag8
ag8
ag8
ag8
ag8
ag8
ag8
ag8
ag8
ag8
ag8
ag8
ag8
ag8
ag8
ag8
ag8
ag8
ag8
ag8
ag8
ag8
ag8
ag8
ag8
ag8
ag8
ag8
ag8
ag8
ag8
ag8
ag8
ag8
ag8
ag8
ag8
ag8
ag8
ag8
ag8
ag8
ag8
ag8
ag8
ag8
ag8
ag8
ag8
ag8
ag8
ag8
ag8
ag8
ag8
ag8
ag8
ag8
ag8
ag8
ag8
ag8
ag8
ag8
ag8
ag8
ag8
ag8
ag8
ag8
ag8
ag8
ag8
ag8
ag8
ag8
ag8
ag8
ag8
ag8
ag8
ag8
ag8
ag8
ag8
ag8
ag8
ag8
ag8
ag8
ag8
ag8
ag8
ag8
ag8
ag8
ag8
ag8
ag8
ag8
ag8
ag8
ag8
ag8
ag8
ag8
ag8
ag8
ag8
ag8
ag8
ag8
ag8
ag8
ag8
ag8
ag8
ag8
ag8
ag8
ag8
ag8
ag8
ag8
ag8
ag8
ag8
ag8
ag8
ag8
ag8
ag8
ag8
ag8
ag8
ag8
ag8
ag8
ag8
ag8
ag8
ag8
ag8
ag8
ag8
ag8
ag8
ag8
ag8
ag8
ag8
ag8
ag8
ag8
ag8
ag8
ag8
ag8
ag8
ag8
ag8
ag8
ag8
ag8
ag8
ag8
ag8
ag8
ag8
ag8
ag8
ag8
ag8
ag8
ag8
ag8
ag8
ag8
ag8
ag8
ag8
ag8
ag8
ag8
ag8
ag8
ag8
ag8
ag8
ag8
ag8
ag8
ag8
ag8
ag8
ag8
ag8
ag8
ag8
ag8
ag8
ag8
ag8
ag8
ag8
ag8
ag8
ag8
ag8
ag8
ag8
ag8
ag8
ag8
ag8
ag8
ag8
ag8
ag8
ag8
ag8
ag8
ag8
ag8
ag8
ag8
ag8
ag8
ag8
ag8
ag8
ag8
ag8
ag8
ag8
ag8
ag8
ag8
ag8
ag8
ag8
ag8
ag8
ag8
ag8
ag8
ag8
ag8
ag8
ag8
ag8
ag8
ag8
ag8
ag8
ag8
ag8
ag8
ag8
ag8
ag8
ag8
ag8
ag8
ag8
ag8
ag8
ag8
ag8
ag8
ag8
ag8
ag8
ag8
ag8
ag8
ag8
ag8
ag8
ag8
ag8
ag8
ag8
ag8
ag8
ag8
ag8
ag8
ag8
ag8
ag8
ag8
ag8
ag8
ag8
ag8
ag8
ag8
ag8
ag8
ag8
ag8
ag8
ag8
ag8
ag8
ag8
ag8
ag8
ag8
ag8
ag8
ag8
ag8
ag8
ag8
ag8
ag8
ag8
ag8
ag8
ag8
ag8
ag8
ag8
ag8
ag8
ag8
ag8
ag8
ag8
ag8
ag8
ag8
ag8
ag8
ag8
ag8
ag8
ag8
ag8
ag8
ag8
ag8
ag8
ag8
ag8
ag8
ag8
ag8
ag8
ag8
ag8
ag8
ag8
ag8
ag8
ag8
ag8
ag8
ag8
ag8
ag8
ag8
ag8
ag8
ag8
ag8
ag8
ag8
ag8
ag8
ag8
ag8
ag8
ag8
ag8
ag8
ag8
ag8
ag8
ag8
ag8
ag8
ag8
ag8
ag8
ag8
ag8
ag8
ag8
ag8
ag8
ag8
ag8
ag8
ag8
ag8
ag8
ag8
ag8
ag8
ag8
ag8
ag8
ag8
ag8
ag8
ag8
ag8
ag8
ag8
ag8
ag8
ag8
ag8
ag8
ag8
ag8
ag8
ag8
ag8
ag8
ag8
ag8
ag8
ag8
ag8
ag8
ag8
ag8
ag8
ag8
ag8
ag8
ag8
ag8
ag8
ag8
ag8
ag8
ag8
ag8
ag8
ag8
ag8
ag8
ag8
ag8
ag8
ag8
ag8
ag8
ag8
ag8
ag8
ag8
ag8
ag8
ag8
ag8
ag8
ag8
ag8
ag8
ag8
ag8
ag8
ag8
ag8
ag8
ag8
ag8
ag8
ag8
ag8
ag8
ag8
ag8
ag8
ag8
ag8
ag8
ag8
ag8
ag8
ag8
ag8
ag8
ag8
ag8
ag8
ag8
ag8
ag8
ag8
ag8
ag8
ag8
ag8
ag8
ag8
ag8
ag8
ag8
ag8
ag8
ag8
ag8
ag8
ag8
ag8
ag8
ag8
ag8
ag8
ag8
ag8
ag8
ag8
ag8
ag8
ag8
ag8
ag8
ag8
ag8
ag8
ag8
ag8
ag8
ag8
ag8
ag8
ag8
ag8
ag8
ag8
ag8
ag8
ag8
ag8
ag8
ag8
ag8
ag8
ag8
ag8
ag8
ag8
ag8
ag8
ag8
ag8
ag8
ag8
ag8
ag8
ag8
ag8
ag8
ag8
ag8
ag8
ag8
ag8
ag8
ag8
ag8
ag8
ag8
ag8
ag8
ag8
ag8
ag8
ag8
ag8
ag8
ag8
ag8
ag8
ag8
ag8
ag8
ag8
ag8
ag8
ag8
ag8
ag8
ag8
ag8
ag8
ag8
ag8
ag8
ag8
ag8
ag8
ag8
ag8
ag8
ag8
ag8
ag8
ag8
ag8
ag8
ag8
ag8
ag8
ag8
ag8
ag8
ag8
ag8
ag8
ag8
ag8
ag8
ag8
ag8
ag8
ag8
ag8
ag8
ag8
ag8
ag8
ag8
ag8
ag8
ag8
ag8
ag8
ag8
ag8
ag8
ag8
ag8
ag8
ag8
ag8
ag8
ag8
ag8
ag8
ag8
ag8
ag8
ag8
ag8
ag8
ag8
ag8
ag8
ag8
ag8
ag8
ag8
ag8
ag8
ag8
ag8
ag8
ag8
ag8
ag8
ag8
ag8
ag8
ag8
ag8
ag8
ag8
ag8
ag8
ag8
ag8
ag8
ag8
ag8
ag8
ag8
ag8
ag8
ag8
ag8
ag8
ag8
ag8
ag8
ag8
ag8
ag8
ag8
ag8
ag8
ag8
ag8
ag8
ag8
ag8
ag8
ag8
ag8
ag8
ag8
ag8
ag8
ag8
ag8
ag8
ag8
ag8
ag8
ag8
ag8
ag8
ag8
ag8
ag8
ag8
ag8
ag8
ag8
ag8
ag8
ag8
ag8
ag8
ag8
ag8
ag8
ag8
ag8
ag8
ag8
ag8
ag8
ag8
ag8
ag8
ag8
ag8
ag8
ag8
ag8
ag8
ag8
ag8
ag8
ag8
ag8
ag8
ag8
ag8
ag8
ag8
ag8
ag8
ag8
ag8
ag8
ag8
ag8
ag8
ag8
ag8
ag8
ag8
ag8
ag8
ag8
ag8
ag8
ag8
ag8
ag8
ag8
ag8
ag8
ag8
ag8
ag8
ag8
ag8
ag8
ag8
ag8
ag8
ag8
ag8
ag8
ag8
ag8
ag8
ag8
ag8
ag8
ag8
ag8
ag8
ag8
ag8
ag8
ag8
ag8
ag8
ag8
ag8
ag8
ag8
ag8
ag8
ag8
ag8
ag8
ag8
ag8
ag8
ag8
ag8
ag8
ag8
ag8
ag8
ag8
ag8
ag8
ag8
ag8
ag8
ag8
ag8
ag8
ag8
ag8
ag8
ag8
ag8
ag8
ag8
ag8
ag8
ag8
ag8
ag8
ag8
ag8
ag8
ag8
ag8
ag8
ag8
ag8
ag8
ag8
ag8
ag8
ag8
ag8
ag8
ag8
ag8
ag8
ag8
ag8
ag8
ag8
ag8
ag8
ag8
ag8
ag8
ag8
ag8
ag8
ag8
ag8
ag8
ag8
ag8
ag8
ag8
ag8
ag8
ag8
ag8
ag8
ag8
ag8
ag8
ag8
ag8
ag8
ag8
ag8
ag8
ag8
ag8
ag8
ag8
ag8
ag8
ag8
ag8
ag8
ag8
ag8
ag8
ag8
ag8
ag8
ag8
ag8
ag8
ag8
ag8
ag8
ag8
ag8
ag8
ag8
ag8
ag8
ag8
ag8
ag8
ag8
ag8
ag8
ag8
ag8
ag8
ag8
ag8
ag8
ag8
ag8
ag8
ag8
ag8
ag8
ag8
ag8
ag8
ag8
ag8
ag8
ag8
ag8
ag8
ag8
ag8
ag8
ag8
ag8
ag8
ag8
ag8
ag8
ag8
ag8
ag8
ag8
ag8
ag8
ag8
ag8
ag8
ag8
ag8
ag8
ag8
ag8
ag8
ag8
ag8
ag8
ag8
ag8
ag8
ag8
ag8
ag8
ag8
ag8
ag8
ag8
ag8
ag8
ag8
ag8
ag8
ag8
ag8
ag8
ag8
ag8
ag8
ag8
ag8
ag8
ag8
ag8
ag8
ag8
ag8
ag8
ag8
ag8
ag8
ag8
ag8
ag8
ag8
ag8
ag8
ag8
ag8
ag8
ag8
ag8
ag8
ag8
ag8
ag8
ag8
ag8
ag8
ag8
ag8
ag8
ag8
ag8
ag8
ag8
ag8
ag8
ag8
ag8
ag8
ag8
ag8
ag8
ag8
ag8
ag8
ag8
ag8
ag8
ag8
ag8
ag8
ag8
ag8
ag8
ag8
ag8
ag8
ag8
ag8
ag8
ag8
ag8
ag8
ag8
ag8
ag8
ag8
ag8
ag8
ag8
ag8
ag8
ag8
ag8
ag8
ag8
ag8
ag8
ag8
ag8
ag8
ag8
ag8
ag8
ag8
ag8
ag8
ag8
ag8
ag8
ag8
ag8
ag8
ag8
ag8
ag8
ag8
ag8
ag8
ag8
ag8
ag8
ag8
ag8
ag8
ag8
ag8
ag8
ag8
ag8
ag8
ag8
ag8
ag8
ag8
ag8
ag8
ag8
ag8
ag8
ag8
ag8
ag8
ag8
ag8
ag8
ag8
ag8
ag8
ag8
ag8
ag8
ag8
ag8
ag8
ag8
ag8
ag8
ag8
ag8
ag8
ag8
ag8
ag8
ag8
ag8
ag8
ag8
ag8
ag8
ag8
ag8
ag8
ag8
ag8
ag8
ag8
ag8
ag8
ag8
ag8
ag8
ag8
ag8
ag8
ag8
ag8
ag8
ag8
ag8
ag8
ag8
ag8
ag8
ag8
ag8
ag8
ag8
ag8
ag8
ag8
ag8
ag8
ag8
ag8
ag8
ag8
ag8
ag8
ag8
ag8
ag8
ag8
ag8
ag8
ag8
ag8
ag8
ag8
ag8
ag8
ag8
ag8
ag8
ag8
ag8
ag8
ag8
ag8
ag8
ag8
ag8
ag8
ag8
ag8
ag8
ag8
ag8
ag8
ag8
ag8
ag8
ag8
ag8
ag8
ag8
ag8
ag8
ag8
ag8
ag8
ag8
ag8
ag8
ag8
ag8
ag8
ag8
ag8
ag8
ag8
ag8
ag8
ag8
ag8
ag8
ag8
ag8
ag8
ag8
ag8
ag8
ag8
ag8
ag8
ag8
ag8
ag8
ag8
ag8
ag8
ag8
ag8
ag8
ag8
ag8
ag8
ag8
ag8
ag8
ag8
ag8
ag8
ag8
ag8
ag8
ag8
ag8
ag8
ag8
ag8
ag8
ag8
ag8
ag8
ag8
ag8
ag8
ag8
ag8
ag8
ag8
ag8
ag8
ag8
ag8
ag8
ag8
ag8
ag8
ag8
ag8
ag8
ag8
ag8
ag8
ag8
ag8
ag8
ag8
ag8
ag8
ag8
ag8
ag8
ag8
ag8
ag8
ag8
ag8
ag8
ag8
ag8
ag8
ag8
ag8
ag8
ag8
ag8
ag8
ag8
ag8
ag8
ag8
ag8
ag8
ag8
ag8
ag8
ag8
ag8
ag8
ag8
ag8
ag8
ag8
ag8
ag8
ag8
ag8
ag8
ag8
ag8
ag8
ag8
ag8
ag8
ag8
ag8
ag8
ag8
ag8
ag8
ag8
ag8
ag8
ag8
ag8
ag8
ag8
ag8
ag8
ag8
ag8
ag8
ag8
ag8
ag8
ag8
ag8
ag8
ag8
ag8
ag8
ag8
ag8
ag8
ag8
ag8
ag8
ag8
ag8
ag8
ag8
ag8
ag8
ag8
ag8
ag8
ag8
ag8
ag8
ag8
ag8
ag8
ag8
ag8
ag8
ag8
ag8
ag8
ag8
ag8
ag8
ag8
ag8
ag8
ag8
ag8
ag8
ag8
ag8
ag8
ag8
ag8
ag8
ag8
ag8
ag8
ag8
ag8
ag8
ag8
ag8
ag8
ag8
ag8
ag8
ag8
ag8
ag8
ag8
ag8
ag8
ag8
ag8
ag8
ag8
ag8
ag8
ag8
ag8
ag8
ag8
ag8
ag8
ag8
ag8
ag8
ag8
ag8
ag8
ag8
ag8
ag8
ag8
ag8
ag8
ag8
ag8
ag8
ag8
ag8
ag8
ag8
ag8
ag8
ag8
ag8
ag8
ag8
ag8
ag8
ag8
ag8
ag8
ag8
ag8
ag8
ag8
ag8
ag8
ag8
ag8
ag8
ag8
ag8
ag8
ag8
ag8
ag8
ag8
ag8
ag8
ag8
ag8
ag8
ag8
ag8
ag8
ag8
ag8
ag8
ag8
ag8
ag8
ag8
ag8
ag8
ag8
ag8
ag8
ag8
ag8
ag8
ag8
ag8
ag8
ag8
ag8
ag8
ag8
ag8
ag8
ag8
ag8
ag8
ag8
ag8
ag8
ag8
ag8
ag8
ag8
ag8
ag8
ag8
ag8
ag8
ag8
ag8
ag8
ag8
ag8
ag8
ag8
ag8
ag8
ag8
ag8
ag8
ag8
ag8
ag8
ag8
ag8
ag8
ag8
ag8
ag8
ag8
ag8
ag8
ag8
ag8
ag8
ag8
ag8
ag8
ag8
ag8
ag8
ag8
ag8
ag8
ag8
ag8
ag8
ag8
ag8
ag8
ag8
ag8
ag8
ag8
ag8
ag8
ag8
ag8
ag8
ag8
ag8
ag8
ag8
ag8
ag8
ag8
ag8
ag8
ag8
ag8
ag8
ag8
ag8
ag8
ag8
ag8
ag8
ag8
ag8
ag8
ag8
ag8
ag8
ag8
ag8
ag8
ag8
ag8
ag8
ag8
ag8
ag8
ag8
ag8
ag8
ag8
ag8
ag8
ag8
ag8
ag8
ag8
ag8
ag8
ag8
ag8
ag8
ag8
ag8
ag8
ag8
ag8
ag8
ag8
ag8
ag8
ag8
ag8
ag8
ag8
ag8
ag8
ag8
ag8
ag8
ag8
ag8
ag8
ag8
ag8
ag8
ag8
ag8
ag8
ag8
ag8
ag8
ag8
ag8
ag8
ag8
ag8
ag8
ag8
ag8
ag8
ag8
ag8
ag8
ag8
ag8
ag8
ag8
ag8
ag8
ag8
ag8
ag8
ag8
ag8
ag8
ag8
ag8
ag8
ag8
ag8
ag8
ag8
ag8
ag8
ag8
ag8
ag8
ag8
ag8
ag8
ag8
ag8
ag8
ag8
ag8
ag8
ag8
ag8
ag8
ag8
ag8
ag8
ag8
ag8
ag8
ag8
ag8
ag8
ag8
ag8
ag8
ag8
ag8
ag8
ag8
ag8
ag8
ag8
ag8
ag8
ag8
ag8
ag8
ag8
ag8
ag8
ag8
ag8
ag8
ag8
ag8
ag8
ag8
ag8
ag8
ag8
ag8
ag8
ag8
ag8
ag8
ag8
ag8
ag8
ag8
ag8
ag8
ag8
ag8
ag8
ag8
ag8
ag8
ag8
ag8
ag8
ag8
ag8
ag8
ag8
ag8
ag8
ag8
ag8
ag8
ag8
ag8
ag8
ag8
ag8
ag8
ag8
ag8
ag8
ag8
ag8
ag8
ag8
ag8
ag8
ag8
ag8
ag8
ag8
ag8
ag8
ag8
ag8
ag8
ag8
ag8
ag8
ag8
ag8
ag8
ag8
ag8
ag8
ag8
ag8
ag8
ag8
ag8
ag8
ag8
ag8
ag8
ag8
ag8
ag8
ag8
ag8
ag8
ag8
ag8
ag8
ag8
ag8
ag8
ag8
ag8
ag8
ag8
ag8
ag8
ag8
ag8
ag8
ag8
ag8
ag8
ag8
ag8
ag8
ag8
ag8
ag8
ag8
ag8
ag8
ag8
ag8
ag8
ag8
ag8
ag8
ag8
ag8
ag8
ag8
ag8
ag8
ag8
ag8
ag8
ag8
ag8
ag8
ag8
ag8
ag8
ag8
ag8
ag8
ag8
ag8
ag8
ag8
ag8
ag8
ag8
ag8
ag8
ag8
ag8
ag8
ag8
ag8
ag8
ag8
ag8
ag8
ag8
ag8
ag8
ag8
ag8
ag8
ag8
ag8
ag8
ag8
ag8
ag8
ag8
ag8
ag8
ag8
ag8
ag8
ag8
ag8
ag8
ag8
ag8
ag8
ag8
ag8
ag8
ag8
ag8
ag8
ag8
ag8
ag8
ag8
ag8
ag8
ag8
ag8
ag8
ag8
ag8
ag8
ag8
ag8
ag8
ag8
ag8
ag8
ag8
ag8
ag8
ag8
ag8
ag8
ag8
ag8
ag8
ag8
ag8
ag8
ag8
ag8
ag8
ag8
ag8
ag8
ag8
ag8
ag8
ag8
ag8
ag8
ag8
ag8
ag8
ag8
ag8
ag8
ag8
ag8
ag8
ag8
ag8
ag8
ag8
ag8
ag8
ag8
ag8
ag8
ag8
ag8
ag8
ag8
ag8
ag8
ag8
ag8
ag8
ag8
ag8
ag8
ag8
ag8
ag8
ag8
ag8
ag8
ag8
ag8
ag8
ag8
ag8
ag8
ag8
ag8
ag8
ag8
ag8
ag8
ag8
ag8
ag8
ag8
ag8
ag8
ag8
ag8
ag8
ag8
ag8
ag8
ag8
ag8
ag8
ag8
ag8
ag8
ag8
ag8
ag8
ag8
ag8
ag8
ag8
ag8
ag8
ag8
ag8
ag8
ag8
ag8
ag8
ag8
ag8
ag8
ag8
ag8
ag8
ag8
ag8
ag8
ag8
ag8
ag8
ag8
ag8
ag8
ag8
ag8
ag8
ag8
ag8
ag8
ag8
ag8
ag8
ag8
ag8
ag8
ag8
ag8
ag8
ag8
ag8
ag8
ag8
ag8
ag8
ag8
ag8
ag8
ag8
ag8
ag8
ag8
ag8
ag8
ag8
ag8
ag8
ag8
ag8
ag8
ag8
ag8
ag8
ag8
ag8
ag8
ag8
ag8
ag8
ag8
ag8
ag8
ag8
ag8
ag8
ag8
ag8
ag8
ag8
ag8
ag8
ag8
ag8
ag8
ag8
ag8
ag8
ag8
ag8
ag8
ag8
ag8
ag8
ag8
ag8
ag8
ag8
ag8
ag8
ag8
ag8
ag8
ag8
ag8
ag8
ag8
ag8
ag8
ag8
ag8
ag8
ag8
ag8
ag8
ag8
ag8
ag8
ag8
aS'audio/a4.m4a'
p9
ag9
ag9
ag9
ag9
ag9
ag9
ag9
ag9
ag9
ag9
ag9
ag9
ag9
ag9
ag9
ag9
ag9
ag9
ag9
ag9
ag9
ag9
ag9
ag9
ag9
ag9
ag9
ag9
ag9
ag9
ag9
ag9
ag9
ag9
ag9
ag9
ag9
ag9
ag9
ag9
ag9
ag9
ag9
ag9
ag9
ag9
ag9
ag9
ag9
aS'audio/a7.m4a'
p10
ag10
ag10
ag10
ag10
ag10
ag10
ag10
ag10
ag10
ag10
ag10
ag10
ag10
ag10
ag10
ag10
ag10
ag10
ag10
ag10
ag10
ag10
ag10
ag10
ag10
ag10
ag10
ag10
ag10
ag10
ag10
ag10
ag10
ag10
ag10
ag10
ag10
ag10
ag10
ag10
ag10
ag10
ag10
ag10
ag10
ag10
ag10
ag10
ag10
ag10
ag10
ag10
ag10
ag10
ag10
ag10
ag10
ag10
ag10
ag10
ag10
ag10
ag10
ag10
ag10
ag10
ag10
ag10
ag10
ag10
ag10
ag10
ag10
ag10
ag10
ag10
ag10
ag10
ag10
ag10
ag10
ag10
ag10
ag10
aS'audio/a11.wav'
p11
ag11
ag11
ag11
ag11
ag11
ag11
ag11
ag11
ag11
ag11
ag11
ag11
ag11
ag11
ag11
ag11
ag11
ag11
ag11
ag11
ag11
ag11
ag11
ag11
ag11
ag11
ag11
ag11
ag11
ag11
ag11
ag11
ag11
ag11
ag11
ag11
ag11
ag11
ag11
ag11
ag11
ag11
ag11
ag11
ag11
ag11
ag11
ag11
ag11
ag11
ag11
ag11
ag11
ag11
ag11
ag11
ag11
ag11
ag11
ag11
ag11
ag11
ag11
ag11
ag11
ag11
ag11
ag11
ag11
ag11
ag11
ag11
ag11
ag11
ag11
ag11
ag11
ag11
ag11
ag11
ag11
ag11
ag11
ag11
ag11
ag11
ag11
ag11
ag11
ag11
ag11
ag11
ag11
ag11
ag11
ag11
ag11
ag11
ag11
ag11
ag11
ag11
ag11
ag11
ag11
ag11
ag11
ag11
ag11
ag11
ag11
ag11
ag11
ag11
ag11
ag11
ag11
ag11
ag11
ag11
ag11
ag11
ag11
ag11
ag11
ag11
ag11
ag11
ag11
ag11
ag11
ag11
ag11
ag11
ag11
ag11
ag11
ag11
ag11
ag11
ag11
ag11
ag11
ag11
ag11
ag11
ag11
ag11
ag11
ag11
ag11
ag11
ag11
ag11
ag11
ag11
ag11
ag11
ag11
ag11
ag11
ag11
ag11
ag11
ag11
ag11
ag11
ag11
ag11
ag11
ag11
ag11
ag11
ag11
ag11
ag11
ag11
ag11
ag11
ag11
ag11
ag11
ag11
ag11
ag11
ag11
ag11
ag11
ag11
ag11
ag11
ag11
ag11
ag11
ag11
ag11
ag11
ag11
ag11
ag11
ag11
ag11
ag11
ag11
ag11
ag11
ag11
ag11
ag11
ag11
ag11
ag11
ag11
ag11
ag11
ag11
ag11
ag11
ag11
ag11
ag11
ag11
ag11
ag11
ag11
ag11
ag11
ag11
ag11
ag11
ag11
ag11
ag11
ag11
ag11
ag11
ag11
ag11
ag11
ag11
ag11
ag11
ag11
ag11
ag11
ag11
ag11
ag11
ag11
ag11
ag11
ag11
ag11
ag11
ag11
ag11
ag11
ag11
ag11
ag11
ag11
ag11
ag11
ag11
ag11
ag11
ag11
ag11
ag11
ag11
ag11
ag11
ag11
ag11
ag11
ag11
ag11
ag11
ag11
ag11
ag11
ag11
ag11
ag11
ag11
ag11
ag11
ag11
ag11
ag11
ag11
ag11
ag11
ag11
ag11
ag11
ag11
ag11
ag11
ag11
ag11
ag11
ag11
ag11
ag11
ag11
ag11
ag11
ag11
ag11
ag11
ag11
ag11
ag11
ag11
ag11
ag11
ag11
ag11
ag11
ag11
ag11
ag11
ag11
ag11
ag11
ag11
ag11
ag11
ag11
ag11
ag11
ag11
aS'audio/a1.m4a'
p12
ag12
ag12
ag12
ag12
ag12
ag12
ag12
ag12
ag12
ag12
ag12
ag12
ag12
ag12
ag12
ag12
ag12
ag12
ag12
ag12
ag12
ag12
ag12
ag12
ag12
ag12
ag12
ag12
ag12
ag12
ag12
ag12
ag12
ag12
ag12
ag12
ag12
ag12
ag12
ag12
ag12
ag12
ag12
ag12
ag12
ag12
ag12
ag12
ag12
ag12
ag12
ag12
ag12
ag12
ag12
ag12
ag12
ag12
ag12
ag12
ag12
ag12
ag12
ag12
ag12
aS'audio/a8.m4a'
p13
ag13
ag13
ag13
ag13
ag13
ag13
ag13
ag13
ag13
ag13
ag13
ag13
ag13
ag13
ag13
ag13
ag13
a.